target datalayout = "e-m:e-p270:32:32-p271:32:32-p272:64:64-i64:64-i128:128-f80:128-n8:16:32:64-S128"
target triple = "x86_64-pc-linux-gnu"

%struct.lean_object = type { i32, i32 }

@l_System_Platform_isWindows = external global i8, align 1
@l_Lake_nameToStaticLib___closed__1 = internal global ptr null, align 8
@l_Lake_nameToStaticLib___closed__3 = internal global ptr null, align 8
@l_System_Platform_isOSX = external global i8, align 1
@l_Lake_nameToSharedLib___closed__1 = internal global ptr null, align 8
@l_Lake_nameToSharedLib___closed__2 = internal global ptr null, align 8
@l_Lake_nameToSharedLib___closed__3 = internal global ptr null, align 8

; Function Attrs: alwaysinline nounwind uwtable
define internal void @lean_dec_ref(ptr noundef %0) #3 {
  %2 = alloca ptr, align 8
  store ptr %0, ptr %2, align 8, !tbaa !4
  %3 = load ptr, ptr %2, align 8, !tbaa !4
  %4 = getelementptr inbounds nuw %struct.lean_object, ptr %3, i32 0, i32 0
  %5 = load i32, ptr %4, align 4, !tbaa !11
  %6 = icmp sgt i32 %5, 1
  %7 = zext i1 %6 to i32
  %8 = sext i32 %7 to i64
  %9 = call i64 @llvm.expect.i64(i64 %8, i64 1)
  %10 = icmp ne i64 %9, 0
  br i1 %10, label %11, label %16

11:                                               ; preds = %1
  %12 = load ptr, ptr %2, align 8, !tbaa !4
  %13 = getelementptr inbounds nuw %struct.lean_object, ptr %12, i32 0, i32 0
  %14 = load i32, ptr %13, align 4, !tbaa !11
  %15 = add i32 %14, -1
  store i32 %15, ptr %13, align 4, !tbaa !11
  br label %24

16:                                               ; preds = %1
  %17 = load ptr, ptr %2, align 8, !tbaa !4
  %18 = getelementptr inbounds nuw %struct.lean_object, ptr %17, i32 0, i32 0
  %19 = load i32, ptr %18, align 4, !tbaa !11
  %20 = icmp ne i32 %19, 0
  br i1 %20, label %21, label %23

21:                                               ; preds = %16
  %22 = load ptr, ptr %2, align 8, !tbaa !4
  call void @lean_dec_ref_cold(ptr noundef %22)
  br label %23

23:                                               ; preds = %21, %16
  br label %24

24:                                               ; preds = %23, %11
  ret void
}

; Function Attrs: alwaysinline nounwind uwtable
define internal zeroext i1 @lean_is_scalar(ptr noundef %0) #3 {
  %2 = alloca ptr, align 8
  store ptr %0, ptr %2, align 8, !tbaa !4
  %3 = load ptr, ptr %2, align 8, !tbaa !4
  %4 = ptrtoint ptr %3 to i64
  %5 = and i64 %4, 1
  %6 = icmp eq i64 %5, 1
  ret i1 %6
}

; Function Attrs: alwaysinline nounwind uwtable
define internal void @lean_dec(ptr noundef %0) #3 {
  %2 = alloca ptr, align 8
  store ptr %0, ptr %2, align 8, !tbaa !4
  %3 = load ptr, ptr %2, align 8, !tbaa !4
  %4 = call zeroext i1 @lean_is_scalar(ptr noundef %3)
  br i1 %4, label %7, label %5

5:                                                ; preds = %1
  %6 = load ptr, ptr %2, align 8, !tbaa !4
  call void @lean_dec_ref(ptr noundef %6)
  br label %7

7:                                                ; preds = %5, %1
  ret void
}

; Function Attrs: nounwind uwtable
define ptr @l_Lake_nameToSharedLib(ptr noundef %0) #0 {
  %2 = alloca ptr, align 8
  %3 = alloca ptr, align 8
  %4 = alloca i8, align 1
  %5 = alloca i8, align 1
  %6 = alloca ptr, align 8
  %7 = alloca ptr, align 8
  %8 = alloca ptr, align 8
  %9 = alloca ptr, align 8
  %10 = alloca i32, align 4
  %11 = alloca ptr, align 8
  %12 = alloca ptr, align 8
  %13 = alloca ptr, align 8
  %14 = alloca ptr, align 8
  %15 = alloca ptr, align 8
  %16 = alloca ptr, align 8
  %17 = alloca ptr, align 8
  %18 = alloca ptr, align 8
  store ptr %0, ptr %3, align 8, !tbaa !4
  br label %19

19:                                               ; preds = %1
  call void @llvm.lifetime.start.p0(i64 1, ptr %4) #7
  %20 = load i8, ptr @l_System_Platform_isWindows, align 1, !tbaa !8
  store i8 %20, ptr %4, align 1, !tbaa !8
  %21 = load i8, ptr %4, align 1, !tbaa !8
  %22 = zext i8 %21 to i32
  %23 = icmp eq i32 %22, 0
  br i1 %23, label %24, label %50

24:                                               ; preds = %19
  call void @llvm.lifetime.start.p0(i64 1, ptr %5) #7
  %25 = load i8, ptr @l_System_Platform_isOSX, align 1, !tbaa !8
  store i8 %25, ptr %5, align 1, !tbaa !8
  %26 = load i8, ptr %5, align 1, !tbaa !8
  %27 = zext i8 %26 to i32
  %28 = icmp eq i32 %27, 0
  br i1 %28, label %29, label %39

29:                                               ; preds = %24
  call void @llvm.lifetime.start.p0(i64 8, ptr %6) #7
  call void @llvm.lifetime.start.p0(i64 8, ptr %7) #7
  call void @llvm.lifetime.start.p0(i64 8, ptr %8) #7
  call void @llvm.lifetime.start.p0(i64 8, ptr %9) #7
  %30 = load ptr, ptr @l_Lake_nameToStaticLib___closed__1, align 8, !tbaa !4
  store ptr %30, ptr %6, align 8, !tbaa !4
  %31 = load ptr, ptr %6, align 8, !tbaa !4
  %32 = load ptr, ptr %3, align 8, !tbaa !4
  %33 = call ptr @lean_string_append(ptr noundef %31, ptr noundef %32)
  store ptr %33, ptr %7, align 8, !tbaa !4
  %34 = load ptr, ptr @l_Lake_nameToSharedLib___closed__1, align 8, !tbaa !4
  store ptr %34, ptr %8, align 8, !tbaa !4
  %35 = load ptr, ptr %7, align 8, !tbaa !4
  %36 = load ptr, ptr %8, align 8, !tbaa !4
  %37 = call ptr @lean_string_append(ptr noundef %35, ptr noundef %36)
  store ptr %37, ptr %9, align 8, !tbaa !4
  %38 = load ptr, ptr %9, align 8, !tbaa !4
  store ptr %38, ptr %2, align 8
  store i32 1, ptr %10, align 4
  call void @llvm.lifetime.end.p0(i64 8, ptr %9) #7
  call void @llvm.lifetime.end.p0(i64 8, ptr %8) #7
  call void @llvm.lifetime.end.p0(i64 8, ptr %7) #7
  call void @llvm.lifetime.end.p0(i64 8, ptr %6) #7
  br label %49

39:                                               ; preds = %24
  call void @llvm.lifetime.start.p0(i64 8, ptr %11) #7
  call void @llvm.lifetime.start.p0(i64 8, ptr %12) #7
  call void @llvm.lifetime.start.p0(i64 8, ptr %13) #7
  call void @llvm.lifetime.start.p0(i64 8, ptr %14) #7
  %40 = load ptr, ptr @l_Lake_nameToStaticLib___closed__1, align 8, !tbaa !4
  store ptr %40, ptr %11, align 8, !tbaa !4
  %41 = load ptr, ptr %11, align 8, !tbaa !4
  %42 = load ptr, ptr %3, align 8, !tbaa !4
  %43 = call ptr @lean_string_append(ptr noundef %41, ptr noundef %42)
  store ptr %43, ptr %12, align 8, !tbaa !4
  %44 = load ptr, ptr @l_Lake_nameToSharedLib___closed__2, align 8, !tbaa !4
  store ptr %44, ptr %13, align 8, !tbaa !4
  %45 = load ptr, ptr %12, align 8, !tbaa !4
  %46 = load ptr, ptr %13, align 8, !tbaa !4
  %47 = call ptr @lean_string_append(ptr noundef %45, ptr noundef %46)
  store ptr %47, ptr %14, align 8, !tbaa !4
  %48 = load ptr, ptr %14, align 8, !tbaa !4
  store ptr %48, ptr %2, align 8
  store i32 1, ptr %10, align 4
  call void @llvm.lifetime.end.p0(i64 8, ptr %14) #7
  call void @llvm.lifetime.end.p0(i64 8, ptr %13) #7
  call void @llvm.lifetime.end.p0(i64 8, ptr %12) #7
  call void @llvm.lifetime.end.p0(i64 8, ptr %11) #7
  br label %49

49:                                               ; preds = %39, %29
  call void @llvm.lifetime.end.p0(i64 1, ptr %5) #7
  br label %60

50:                                               ; preds = %19
  call void @llvm.lifetime.start.p0(i64 8, ptr %15) #7
  call void @llvm.lifetime.start.p0(i64 8, ptr %16) #7
  call void @llvm.lifetime.start.p0(i64 8, ptr %17) #7
  call void @llvm.lifetime.start.p0(i64 8, ptr %18) #7
  %51 = load ptr, ptr @l_Lake_nameToStaticLib___closed__3, align 8, !tbaa !4
  store ptr %51, ptr %15, align 8, !tbaa !4
  %52 = load ptr, ptr %15, align 8, !tbaa !4
  %53 = load ptr, ptr %3, align 8, !tbaa !4
  %54 = call ptr @lean_string_append(ptr noundef %52, ptr noundef %53)
  store ptr %54, ptr %16, align 8, !tbaa !4
  %55 = load ptr, ptr @l_Lake_nameToSharedLib___closed__3, align 8, !tbaa !4
  store ptr %55, ptr %17, align 8, !tbaa !4
  %56 = load ptr, ptr %16, align 8, !tbaa !4
  %57 = load ptr, ptr %17, align 8, !tbaa !4
  %58 = call ptr @lean_string_append(ptr noundef %56, ptr noundef %57)
  store ptr %58, ptr %18, align 8, !tbaa !4
  %59 = load ptr, ptr %18, align 8, !tbaa !4
  store ptr %59, ptr %2, align 8
  store i32 1, ptr %10, align 4
  call void @llvm.lifetime.end.p0(i64 8, ptr %18) #7
  call void @llvm.lifetime.end.p0(i64 8, ptr %17) #7
  call void @llvm.lifetime.end.p0(i64 8, ptr %16) #7
  call void @llvm.lifetime.end.p0(i64 8, ptr %15) #7
  br label %60

60:                                               ; preds = %50, %49
  call void @llvm.lifetime.end.p0(i64 1, ptr %4) #7
  %61 = load ptr, ptr %2, align 8
  ret ptr %61
}

; Function Attrs: nounwind uwtable
define ptr @l_Lake_nameToSharedLib___boxed(ptr noundef %0) #0 {
  %2 = alloca ptr, align 8
  %3 = alloca ptr, align 8
  store ptr %0, ptr %2, align 8, !tbaa !4
  br label %4

4:                                                ; preds = %1
  call void @llvm.lifetime.start.p0(i64 8, ptr %3) #7
  %5 = load ptr, ptr %2, align 8, !tbaa !4
  %6 = call ptr @l_Lake_nameToSharedLib(ptr noundef %5)
  store ptr %6, ptr %3, align 8, !tbaa !4
  %7 = load ptr, ptr %2, align 8, !tbaa !4
  call void @lean_dec(ptr noundef %7)
  %8 = load ptr, ptr %3, align 8, !tbaa !4
  call void @llvm.lifetime.end.p0(i64 8, ptr %3) #7
  ret ptr %8
}