; Function Attrs: nounwind uwtable
define ptr @l_Lake_nameToSharedLib___boxed(ptr noundef %0) local_unnamed_addr #0 {
  %2 = load i8, ptr @l_System_Platform_isWindows, align 1, !tbaa !4
  %3 = icmp eq i8 %2, 0
  br i1 %3, label %4, label %9

4:                                                ; preds = %1
  %5 = load i8, ptr @l_System_Platform_isOSX, align 1, !tbaa !4
  %6 = icmp eq i8 %5, 0
  %7 = load ptr, ptr @l_Lake_nameToStaticLib___closed__1, align 8, !tbaa !7
  %8 = tail call ptr @lean_string_append(ptr noundef %7, ptr noundef %0) #3
  %l_Lake_nameToSharedLib___closed__1.l_Lake_nameToSharedLib___closed__2.i = select i1 %6, ptr @l_Lake_nameToSharedLib___closed__1, ptr @l_Lake_nameToSharedLib___closed__2
  br label %l_Lake_nameToSharedLib.exit

9:                                                ; preds = %1
  %10 = load ptr, ptr @l_Lake_nameToStaticLib___closed__3, align 8, !tbaa !7
  %11 = tail call ptr @lean_string_append(ptr noundef %10, ptr noundef %0) #3
  br label %l_Lake_nameToSharedLib.exit

l_Lake_nameToSharedLib.exit:                      ; preds = %4, %9
  %l_Lake_nameToSharedLib___closed__1.sink.i = phi ptr [ @l_Lake_nameToSharedLib___closed__3, %9 ], [ %l_Lake_nameToSharedLib___closed__1.l_Lake_nameToSharedLib___closed__2.i, %4 ]
  %.sink.i = phi ptr [ %11, %9 ], [ %8, %4 ]
  %12 = load ptr, ptr %l_Lake_nameToSharedLib___closed__1.sink.i, align 8, !tbaa !7
  %13 = tail call ptr @lean_string_append(ptr noundef %.sink.i, ptr noundef %12) #3
  %14 = ptrtoint ptr %0 to i64
  %15 = and i64 %14, 1
  %.not = icmp eq i64 %15, 0
  br i1 %.not, label %16, label %lean_dec.exit

16:                                               ; preds = %l_Lake_nameToSharedLib.exit
  %17 = load i32, ptr %0, align 4, !tbaa !9
  %18 = icmp sgt i32 %17, 1
  br i1 %18, label %19, label %21, !prof !12

19:                                               ; preds = %16
  %20 = add nsw i32 %17, -1
  store i32 %20, ptr %0, align 4, !tbaa !9
  br label %lean_dec.exit

21:                                               ; preds = %16
  %.not.i = icmp eq i32 %17, 0
  br i1 %.not.i, label %lean_dec.exit, label %22

22:                                               ; preds = %21
  tail call void @lean_dec_ref_cold(ptr noundef nonnull %0) #3
  br label %lean_dec.exit

lean_dec.exit:                                    ; preds = %22, %21, %19, %l_Lake_nameToSharedLib.exit
  ret ptr %13
}